ARM GAS  C:\Users\austi\AppData\Local\Temp\ccM5l4IH.s 			page 1


   1              		.syntax unified
   2              		.cpu cortex-m3
   3              		.fpu softvfp
   4              		.eabi_attribute 20, 1
   5              		.eabi_attribute 21, 1
   6              		.eabi_attribute 23, 3
   7              		.eabi_attribute 24, 1
   8              		.eabi_attribute 25, 1
   9              		.eabi_attribute 26, 1
  10              		.eabi_attribute 30, 1
  11              		.eabi_attribute 34, 1
  12              		.eabi_attribute 18, 4
  13              		.thumb
  14              		.file	"main.c"
  15              		.text
  16              	.Ltext0:
  17              		.cfi_sections	.debug_frame
  18              		.section	.text.main,"ax",%progbits
  19              		.align	2
  20              		.global	main
  21              		.thumb
  22              		.thumb_func
  23              		.type	main, %function
  24              	main:
  25              	.LFB63:
  26              		.file 1 "main.c"
   1:main.c        **** /**
   2:main.c        **** * @mainpage ZumoBot Project
   3:main.c        **** * @brief    You can make your own ZumoBot with various sensors.
   4:main.c        **** * @details  <br><br>
   5:main.c        ****     <p>
   6:main.c        ****     <B>General</B><br>
   7:main.c        ****     You will use Pololu Zumo Shields for your robot project with CY8CKIT-059(PSoC 5LP) from Cypress
   8:main.c        ****     library has basic methods of various sensors and communications so that you can make what you w
   9:main.c        ****     <br><br>
  10:main.c        ****     </p>
  11:main.c        ****     
  12:main.c        ****     <p>
  13:main.c        ****     <B>Sensors</B><br>
  14:main.c        ****     &nbsp;Included: <br>
  15:main.c        ****         &nbsp;&nbsp;&nbsp;&nbsp;LSM303D: Accelerometer & Magnetometer<br>
  16:main.c        ****         &nbsp;&nbsp;&nbsp;&nbsp;L3GD20H: Gyroscope<br>
  17:main.c        ****         &nbsp;&nbsp;&nbsp;&nbsp;Reflectance sensor<br>
  18:main.c        ****         &nbsp;&nbsp;&nbsp;&nbsp;Motors
  19:main.c        ****     &nbsp;Wii nunchuck<br>
  20:main.c        ****     &nbsp;TSOP-2236: IR Receiver<br>
  21:main.c        ****     &nbsp;HC-SR04: Ultrasonic sensor<br>
  22:main.c        ****     &nbsp;APDS-9301: Ambient light sensor<br>
  23:main.c        ****     &nbsp;IR LED <br><br><br>
  24:main.c        ****     </p>
  25:main.c        ****     
  26:main.c        ****     <p>
  27:main.c        ****     <B>Communication</B><br>
  28:main.c        ****     I2C, UART, Serial<br>
  29:main.c        ****     </p>
  30:main.c        **** */
  31:main.c        **** 
ARM GAS  C:\Users\austi\AppData\Local\Temp\ccM5l4IH.s 			page 2


  32:main.c        **** #include <project.h>
  33:main.c        **** #include <stdio.h>
  34:main.c        **** #include "Motor.h"
  35:main.c        **** #include "Ultra.h"
  36:main.c        **** #include "Nunchuk.h"
  37:main.c        **** #include "Reflectance.h"
  38:main.c        **** #include "I2C_made.h"
  39:main.c        **** #include "Gyro.h"
  40:main.c        **** #include "Accel_magnet.h"
  41:main.c        **** #include "IR.h"
  42:main.c        **** #include "Ambient.h"
  43:main.c        **** #include "Beep.h"
  44:main.c        **** int rread(void);
  45:main.c        **** 
  46:main.c        **** /**
  47:main.c        ****  * @file    main.c
  48:main.c        ****  * @brief   
  49:main.c        ****  * @details  ** You should enable global interrupt for operating properly. **<br>&nbsp;&nbsp;&nbsp;
  50:main.c        **** */
  51:main.c        **** 
  52:main.c        **** 
  53:main.c        ****  /*//battery level//
  54:main.c        **** int main()
  55:main.c        **** {
  56:main.c        ****     CyGlobalIntEnable; 
  57:main.c        ****     UART_1_Start();
  58:main.c        ****     ADC_Battery_Start();        
  59:main.c        ****     int16 adcresult =0;
  60:main.c        ****     float volts = 0.0;
  61:main.c        **** 
  62:main.c        ****     printf("\nBoot\n");
  63:main.c        **** 
  64:main.c        ****     //BatteryLed_Write(1); // Switch led on 
  65:main.c        ****     BatteryLed_Write(0); // Switch led off 
  66:main.c        ****     //uint8 button;
  67:main.c        ****     //button = SW1_Read(); // read SW1 on pSoC board
  68:main.c        **** 
  69:main.c        ****     for(;;)
  70:main.c        ****     {
  71:main.c        ****         
  72:main.c        ****         ADC_Battery_StartConvert();
  73:main.c        ****         if(ADC_Battery_IsEndConversion(ADC_Battery_WAIT_FOR_RESULT)) {   // wait for get ADC conver
  74:main.c        ****             adcresult = ADC_Battery_GetResult16();
  75:main.c        ****             volts = ADC_Battery_CountsTo_Volts(adcresult);                  // convert value to Vol
  76:main.c        ****              float battery_volts = (3 / (float)2) * volts;  // to set the answer as float values 
  77:main.c        ****             // If you want to print value
  78:main.c        ****             printf("%d %f\r\n",adcresult, volts);
  79:main.c        ****         }
  80:main.c        ****         CyDelay(500);
  81:main.c        ****         
  82:main.c        ****     }
  83:main.c        ****  }   
  84:main.c        **** //*/
  85:main.c        **** 
  86:main.c        **** 
  87:main.c        **** /*//ultra sonic sensor//
  88:main.c        **** int main()
ARM GAS  C:\Users\austi\AppData\Local\Temp\ccM5l4IH.s 			page 3


  89:main.c        **** {
  90:main.c        ****     CyGlobalIntEnable; 
  91:main.c        ****     UART_1_Start();
  92:main.c        ****     Ultra_Start();                          // Ultra Sonic Start function
  93:main.c        ****     while(1) {
  94:main.c        ****         //If you want to print out the value  
  95:main.c        ****         printf("distance = %5.0f\r\n", Ultra_GetDistance());
  96:main.c        ****         CyDelay(1000);
  97:main.c        ****     }
  98:main.c        **** }   
  99:main.c        **** //*/
 100:main.c        **** 
 101:main.c        **** 
 102:main.c        **** /*//nunchuk//
 103:main.c        **** int main()
 104:main.c        **** {
 105:main.c        ****     CyGlobalIntEnable; 
 106:main.c        ****     UART_1_Start();
 107:main.c        ****   
 108:main.c        ****     nunchuk_start();
 109:main.c        ****     nunchuk_init();
 110:main.c        ****     
 111:main.c        ****     for(;;)
 112:main.c        ****     {    
 113:main.c        ****         nunchuk_read();
 114:main.c        ****     }
 115:main.c        **** }   
 116:main.c        **** //*/
 117:main.c        **** 
 118:main.c        **** 
 119:main.c        **** /*//IR receiver//
 120:main.c        **** int main()
 121:main.c        **** {
 122:main.c        ****     CyGlobalIntEnable; 
 123:main.c        ****     UART_1_Start();
 124:main.c        ****     
 125:main.c        ****     unsigned int IR_val; 
 126:main.c        ****     
 127:main.c        ****     for(;;)
 128:main.c        ****     {
 129:main.c        ****        IR_val = get_IR();
 130:main.c        ****        printf("%x\r\n\n",IR_val);
 131:main.c        ****     }    
 132:main.c        ****  }   
 133:main.c        **** //*/
 134:main.c        **** 
 135:main.c        **** 
 136:main.c        **** /*//Ambient light sensor//
 137:main.c        **** int main()
 138:main.c        **** {
 139:main.c        ****     CyGlobalIntEnable; 
 140:main.c        ****     UART_1_Start();
 141:main.c        ****     
 142:main.c        ****     I2C_Start();
 143:main.c        ****     
 144:main.c        ****     I2C_write(0x29,0x80,0x00);          // set to power down
 145:main.c        ****     I2C_write(0x29,0x80,0x03);          // set to power on
ARM GAS  C:\Users\austi\AppData\Local\Temp\ccM5l4IH.s 			page 4


 146:main.c        ****     
 147:main.c        ****     for(;;)
 148:main.c        ****     {    
 149:main.c        ****         uint8 Data0Low,Data0High,Data1Low,Data1High;
 150:main.c        ****         Data0Low = I2C_read(0x29,CH0_L);
 151:main.c        ****         Data0High = I2C_read(0x29,CH0_H);
 152:main.c        ****         Data1Low = I2C_read(0x29,CH1_L);
 153:main.c        ****         Data1High = I2C_read(0x29,CH1_H);
 154:main.c        ****         
 155:main.c        ****         uint8 CH0, CH1;
 156:main.c        ****         CH0 = convert_raw(Data0Low,Data0High);      // combine Data0
 157:main.c        ****         CH1 = convert_raw(Data1Low,Data1High);      // combine Data1
 158:main.c        **** 
 159:main.c        ****         double Ch0 = CH0;
 160:main.c        ****         double Ch1 = CH1;
 161:main.c        ****         
 162:main.c        ****         double data = 0;
 163:main.c        ****         data = getLux(Ch0,Ch1);
 164:main.c        ****         
 165:main.c        ****         // If you want to print out data
 166:main.c        ****         //printf("%lf\r\n",data);    
 167:main.c        ****     }    
 168:main.c        ****  }   
 169:main.c        **** //*/
 170:main.c        **** 
 171:main.c        **** 
 172:main.c        **** /*//accelerometer//
 173:main.c        **** int main()
 174:main.c        **** {
 175:main.c        ****     CyGlobalIntEnable; 
 176:main.c        ****     UART_1_Start();
 177:main.c        ****   
 178:main.c        ****     I2C_Start();
 179:main.c        ****   
 180:main.c        ****     uint8 X_L_A, X_H_A, Y_L_A, Y_H_A, Z_L_A, Z_H_A;
 181:main.c        ****     int16 X_AXIS_A, Y_AXIS_A, Z_AXIS_A;
 182:main.c        ****     
 183:main.c        ****     I2C_write(ACCEL_MAG_ADDR, ACCEL_CTRL1_REG, 0x37);           // set accelerometer & magnetometer
 184:main.c        ****     I2C_write(ACCEL_MAG_ADDR, ACCEL_CTRL7_REG, 0x22);
 185:main.c        ****     
 186:main.c        ****     
 187:main.c        ****     for(;;)
 188:main.c        ****     {
 189:main.c        ****         //print out accelerometer output
 190:main.c        ****         X_L_A = I2C_read(ACCEL_MAG_ADDR, OUT_X_L_A);
 191:main.c        ****         X_H_A = I2C_read(ACCEL_MAG_ADDR, OUT_X_H_A);
 192:main.c        ****         X_AXIS_A = convert_raw(X_L_A, X_H_A);
 193:main.c        ****         
 194:main.c        ****         Y_L_A = I2C_read(ACCEL_MAG_ADDR, OUT_Y_L_A);
 195:main.c        ****         Y_H_A = I2C_read(ACCEL_MAG_ADDR, OUT_Y_H_A);
 196:main.c        ****         Y_AXIS_A = convert_raw(Y_L_A, Y_H_A);
 197:main.c        ****         
 198:main.c        ****         Z_L_A = I2C_read(ACCEL_MAG_ADDR, OUT_Z_L_A);
 199:main.c        ****         Z_H_A = I2C_read(ACCEL_MAG_ADDR, OUT_Z_H_A);
 200:main.c        ****         Z_AXIS_A = convert_raw(Z_L_A, Z_H_A);
 201:main.c        ****         
 202:main.c        ****         printf("ACCEL: %d %d %d %d %d %d \r\n", X_L_A, X_H_A, Y_L_A, Y_H_A, Z_L_A, Z_H_A);
ARM GAS  C:\Users\austi\AppData\Local\Temp\ccM5l4IH.s 			page 5


 203:main.c        ****         value_convert_accel(X_AXIS_A, Y_AXIS_A, Z_AXIS_A);
 204:main.c        ****         printf("\n");
 205:main.c        ****         
 206:main.c        ****         CyDelay(50);
 207:main.c        ****     }
 208:main.c        **** }   
 209:main.c        **** //*/
 210:main.c        **** 
 211:main.c        **** 
 212:main.c        **** //reflectance//
 213:main.c        **** int main()
 214:main.c        **** {
  27              		.loc 1 214 0
  28              		.cfi_startproc
  29              		@ args = 0, pretend = 0, frame = 16
  30              		@ frame_needed = 0, uses_anonymous_args = 0
  31 0000 10B5     		push	{r4, lr}
  32              		.cfi_def_cfa_offset 8
  33              		.cfi_offset 4, -8
  34              		.cfi_offset 14, -4
  35 0002 86B0     		sub	sp, sp, #24
  36              		.cfi_def_cfa_offset 32
 215:main.c        ****     struct sensors_ ref;
 216:main.c        ****     struct sensors_ dig;
 217:main.c        ****     CyGlobalIntEnable; 
  37              		.loc 1 217 0
  38              	@ 217 "main.c" 1
  39 0004 62B6     		CPSIE   i
  40              	@ 0 "" 2
 218:main.c        ****     UART_1_Start();
  41              		.loc 1 218 0
  42              		.thumb
  43 0006 FFF7FEFF 		bl	UART_1_Start
  44              	.LVL0:
 219:main.c        ****     
 220:main.c        ****     motor_start();
  45              		.loc 1 220 0
  46 000a FFF7FEFF 		bl	motor_start
  47              	.LVL1:
 221:main.c        ****     sensor_isr_StartEx(sensor_isr_handler);
  48              		.loc 1 221 0
  49 000e 4C48     		ldr	r0, .L12
  50 0010 FFF7FEFF 		bl	sensor_isr_StartEx
  51              	.LVL2:
 222:main.c        ****     
 223:main.c        ****     reflectance_start();
  52              		.loc 1 223 0
  53 0014 FFF7FEFF 		bl	reflectance_start
  54              	.LVL3:
 224:main.c        **** 
 225:main.c        ****     IR_led_Write(1);
  55              		.loc 1 225 0
  56 0018 0120     		movs	r0, #1
  57 001a FFF7FEFF 		bl	IR_led_Write
  58              	.LVL4:
 226:main.c        ****       reflectance_digital(&dig);
  59              		.loc 1 226 0
ARM GAS  C:\Users\austi\AppData\Local\Temp\ccM5l4IH.s 			page 6


  60 001e 02A8     		add	r0, sp, #8
  61 0020 FFF7FEFF 		bl	reflectance_digital
  62              	.LVL5:
 227:main.c        ****     
 228:main.c        ****     
 229:main.c        ****     while( dig.l3 == 1 && dig.r3 == 1 ) // while black line is not senced
  63              		.loc 1 229 0
  64 0024 10E0     		b	.L2
  65              	.L4:
 230:main.c        ****     {
 231:main.c        ****         reflectance_digital(&dig);
  66              		.loc 1 231 0
  67 0026 02A8     		add	r0, sp, #8
  68 0028 FFF7FEFF 		bl	reflectance_digital
  69              	.LVL6:
 232:main.c        ****         
 233:main.c        ****         printf("%d %d  \r\n", dig.l3, dig.r3);    
  70              		.loc 1 233 0
  71 002c 4548     		ldr	r0, .L12+4
  72 002e BDF80810 		ldrh	r1, [sp, #8]
  73 0032 BDF80E20 		ldrh	r2, [sp, #14]
  74 0036 FFF7FEFF 		bl	printf
  75              	.LVL7:
 234:main.c        ****     //Keep moving forward
 235:main.c        ****     motor_forward(125,1);
  76              		.loc 1 235 0
  77 003a 7D20     		movs	r0, #125
  78 003c 0121     		movs	r1, #1
  79 003e FFF7FEFF 		bl	motor_forward
  80              	.LVL8:
 236:main.c        ****     printf("Detecting Line \n");
  81              		.loc 1 236 0
  82 0042 4148     		ldr	r0, .L12+8
  83 0044 FFF7FEFF 		bl	puts
  84              	.LVL9:
  85              	.L2:
 229:main.c        ****     {
  86              		.loc 1 229 0
  87 0048 BDF80830 		ldrh	r3, [sp, #8]
  88 004c 012B     		cmp	r3, #1
  89 004e 03D1     		bne	.L3
 229:main.c        ****     {
  90              		.loc 1 229 0 is_stmt 0 discriminator 1
  91 0050 BDF80E30 		ldrh	r3, [sp, #14]
  92 0054 012B     		cmp	r3, #1
  93 0056 E6D0     		beq	.L4
  94              	.L3:
 237:main.c        ****     }
 238:main.c        ****     //Stop the motor
 239:main.c        ****     printf("Line Detected \n");
  95              		.loc 1 239 0 is_stmt 1
  96 0058 3C48     		ldr	r0, .L12+12
  97 005a FFF7FEFF 		bl	puts
  98              	.LVL10:
 240:main.c        ****     PWM_Stop();
  99              		.loc 1 240 0
 100 005e FFF7FEFF 		bl	PWM_Stop
ARM GAS  C:\Users\austi\AppData\Local\Temp\ccM5l4IH.s 			page 7


 101              	.LVL11:
 102              	.L5:
 241:main.c        ****     
 242:main.c        ****     while( ! get_IR() )//   not getting some thing form IR
 103              		.loc 1 242 0 discriminator 1
 104 0062 FFF7FEFF 		bl	get_IR
 105              	.LVL12:
 106 0066 0028     		cmp	r0, #0
 107 0068 FBD0     		beq	.L5
 243:main.c        ****     {
 244:main.c        ****     //printf("Nothing form IR \n");
 245:main.c        ****     }
 246:main.c        ****     motor_start();
 108              		.loc 1 246 0
 109 006a FFF7FEFF 		bl	motor_start
 110              	.LVL13:
 247:main.c        ****     printf("For Loop Started \n");
 111              		.loc 1 247 0
 112 006e 3848     		ldr	r0, .L12+16
 113 0070 FFF7FEFF 		bl	puts
 114              	.LVL14:
 248:main.c        ****     motor_forward (255,1000);
 115              		.loc 1 248 0
 116 0074 FF20     		movs	r0, #255
 117 0076 4FF47A71 		mov	r1, #1000
 118 007a FFF7FEFF 		bl	motor_forward
 119              	.LVL15:
 120              	.L10:
 249:main.c        ****     
 250:main.c        ****     
 251:main.c        ****             
 252:main.c        ****     for (;;)
 253:main.c        ****     {
 254:main.c        ****         reflectance_read(&ref);
 121              		.loc 1 254 0
 122 007e 04A8     		add	r0, sp, #16
 123 0080 FFF7FEFF 		bl	reflectance_read
 124              	.LVL16:
 255:main.c        ****         printf("%d %d %d %d \r\n", ref.l3, ref.l1, ref.r1, ref.r3);       //print out each period o
 125              		.loc 1 255 0
 126 0084 BDF81010 		ldrh	r1, [sp, #16]
 127 0088 BDF81220 		ldrh	r2, [sp, #18]
 128 008c BDF81430 		ldrh	r3, [sp, #20]
 129 0090 BDF81600 		ldrh	r0, [sp, #22]
 130 0094 2F4C     		ldr	r4, .L12+20
 131 0096 0090     		str	r0, [sp]
 132 0098 2046     		mov	r0, r4
 133 009a FFF7FEFF 		bl	printf
 134              	.LVL17:
 256:main.c        ****         reflectance_digital(&dig);      //print out 0 or 1 according to results of reflectance peri
 135              		.loc 1 256 0
 136 009e 02A8     		add	r0, sp, #8
 137 00a0 FFF7FEFF 		bl	reflectance_digital
 138              	.LVL18:
 257:main.c        ****         printf("%d %d %d %d \r\n", dig.l3, dig.l1, dig.r1, dig.r3);        //print out 0 or 1 accor
 139              		.loc 1 257 0
 140 00a4 BDF80810 		ldrh	r1, [sp, #8]
ARM GAS  C:\Users\austi\AppData\Local\Temp\ccM5l4IH.s 			page 8


 141 00a8 BDF80A20 		ldrh	r2, [sp, #10]
 142 00ac BDF80C30 		ldrh	r3, [sp, #12]
 143 00b0 BDF80E00 		ldrh	r0, [sp, #14]
 144 00b4 0090     		str	r0, [sp]
 145 00b6 2046     		mov	r0, r4
 146 00b8 FFF7FEFF 		bl	printf
 147              	.LVL19:
 258:main.c        ****     
 259:main.c        ****  
 260:main.c        ****         
 261:main.c        ****     if (ref.l3 > 20000)
 148              		.loc 1 261 0
 149 00bc BDF81020 		ldrh	r2, [sp, #16]
 150 00c0 44F62063 		movw	r3, #20000
 151 00c4 9A42     		cmp	r2, r3
 152 00c6 08D9     		bls	.L6
 262:main.c        ****     {
 263:main.c        ****     motor_backward(255,150);
 153              		.loc 1 263 0
 154 00c8 FF20     		movs	r0, #255
 155 00ca 9621     		movs	r1, #150
 156 00cc FFF7FEFF 		bl	motor_backward
 157              	.LVL20:
 264:main.c        ****     prmotor_turn(255,255,150);
 158              		.loc 1 264 0
 159 00d0 FF20     		movs	r0, #255
 160 00d2 0146     		mov	r1, r0
 161 00d4 9622     		movs	r2, #150
 162 00d6 FFF7FEFF 		bl	prmotor_turn
 163              	.LVL21:
 164              	.L6:
 265:main.c        ****     }
 266:main.c        ****     if (ref.r3 > 20000)
 165              		.loc 1 266 0
 166 00da BDF81620 		ldrh	r2, [sp, #22]
 167 00de 44F62063 		movw	r3, #20000
 168 00e2 9A42     		cmp	r2, r3
 169 00e4 08D9     		bls	.L7
 267:main.c        ****     {
 268:main.c        ****     motor_backward(255,150);
 170              		.loc 1 268 0
 171 00e6 FF20     		movs	r0, #255
 172 00e8 9621     		movs	r1, #150
 173 00ea FFF7FEFF 		bl	motor_backward
 174              	.LVL22:
 269:main.c        ****     plmotor_turn(255,255,150);
 175              		.loc 1 269 0
 176 00ee FF20     		movs	r0, #255
 177 00f0 0146     		mov	r1, r0
 178 00f2 9622     		movs	r2, #150
 179 00f4 FFF7FEFF 		bl	plmotor_turn
 180              	.LVL23:
 181              	.L7:
 270:main.c        ****     }
 271:main.c        ****     if (ref.l3 > 20000 && ref.l1 > 20000 && ref.r1 > 20000 && ref.r3 > 20000)
 182              		.loc 1 271 0
 183 00f8 BDF81020 		ldrh	r2, [sp, #16]
ARM GAS  C:\Users\austi\AppData\Local\Temp\ccM5l4IH.s 			page 9


 184 00fc 44F62063 		movw	r3, #20000
 185 0100 9A42     		cmp	r2, r3
 186 0102 15D9     		bls	.L8
 187              		.loc 1 271 0 is_stmt 0 discriminator 1
 188 0104 BDF81220 		ldrh	r2, [sp, #18]
 189 0108 9A42     		cmp	r2, r3
 190 010a 11D9     		bls	.L8
 191              		.loc 1 271 0 discriminator 2
 192 010c BDF81420 		ldrh	r2, [sp, #20]
 193 0110 9A42     		cmp	r2, r3
 194 0112 0DD9     		bls	.L8
 195              		.loc 1 271 0 discriminator 3
 196 0114 BDF81620 		ldrh	r2, [sp, #22]
 197 0118 9A42     		cmp	r2, r3
 198 011a 09D9     		bls	.L8
 272:main.c        ****     {
 273:main.c        ****     motor_backward(255,150);
 199              		.loc 1 273 0 is_stmt 1
 200 011c FF20     		movs	r0, #255
 201 011e 9621     		movs	r1, #150
 202 0120 FFF7FEFF 		bl	motor_backward
 203              	.LVL24:
 274:main.c        ****     prmotor_turn(255,255,150);
 204              		.loc 1 274 0
 205 0124 FF20     		movs	r0, #255
 206 0126 0146     		mov	r1, r0
 207 0128 9622     		movs	r2, #150
 208 012a FFF7FEFF 		bl	prmotor_turn
 209              	.LVL25:
 210 012e 03E0     		b	.L9
 211              	.L8:
 275:main.c        ****     }
 276:main.c        ****     else     motor_forward(255,1);
 212              		.loc 1 276 0
 213 0130 FF20     		movs	r0, #255
 214 0132 0121     		movs	r1, #1
 215 0134 FFF7FEFF 		bl	motor_forward
 216              	.LVL26:
 217              	.L9:
 277:main.c        ****     CyDelayUs(1);
 218              		.loc 1 277 0
 219 0138 0120     		movs	r0, #1
 220 013a FFF7FEFF 		bl	CyDelayUs
 221              	.LVL27:
 278:main.c        ****          
 279:main.c        ****     
 280:main.c        ****     }
 222              		.loc 1 280 0
 223 013e 9EE7     		b	.L10
 224              	.L13:
 225              		.align	2
 226              	.L12:
 227 0140 00000000 		.word	sensor_isr_handler
 228 0144 00000000 		.word	.LC0
 229 0148 0C000000 		.word	.LC1
 230 014c 1C000000 		.word	.LC2
 231 0150 2C000000 		.word	.LC3
ARM GAS  C:\Users\austi\AppData\Local\Temp\ccM5l4IH.s 			page 10


 232 0154 40000000 		.word	.LC4
 233              		.cfi_endproc
 234              	.LFE63:
 235              		.size	main, .-main
 236              		.section	.text._write,"ax",%progbits
 237              		.align	2
 238              		.global	_write
 239              		.thumb
 240              		.thumb_func
 241              		.type	_write, %function
 242              	_write:
 243              	.LFB64:
 281:main.c        **** }
 282:main.c        **** //*/
 283:main.c        **** /*//2nd reflectance code/
 284:main.c        **** int main()
 285:main.c        **** {
 286:main.c        ****     int i = 0, true = 0, fake = 0;
 287:main.c        ****     CyGlobalIntEnable; 
 288:main.c        ****     UART_1_Start();
 289:main.c        ****     struct sensors_ ref;
 290:main.c        ****     struct sensors_ dig;
 291:main.c        ****     CyGlobalIntEnable; 
 292:main.c        ****     UART_1_Start();
 293:main.c        ****     sensor_isr_StartEx(sensor_isr_handler);
 294:main.c        ****     reflectance_start();
 295:main.c        ****     motor_start();
 296:main.c        ****     IR_led_Write(1);
 297:main.c        ****     reflectance_digital(&dig);
 298:main.c        ****     PWM_Start();
 299:main.c        ****     
 300:main.c        ****     while( dig.l3 == 1 && dig.r3 == 1 ) // while black line is not senced
 301:main.c        ****     {
 302:main.c        ****         reflectance_digital(&dig);
 303:main.c        ****         printf("%d %d  \r\n", dig.l3, dig.r3);    
 304:main.c        ****         //Keep moving forward
 305:main.c        ****         motor_forward(125,1);
 306:main.c        ****         printf("Detecting Line \n");
 307:main.c        ****     }
 308:main.c        ****         //Stop the motor
 309:main.c        ****         printf("Line Detected \n");
 310:main.c        ****         PWM_Stop();
 311:main.c        ****     
 312:main.c        ****     while( ! get_IR() )//   not getting some thing form IR
 313:main.c        ****     {
 314:main.c        ****         
 315:main.c        ****     }
 316:main.c        ****         motor_start();
 317:main.c        ****         printf("For Loop Started \n");
 318:main.c        **** 
 319:main.c        ****     do
 320:main.c        ****      { 
 321:main.c        ****         reflectance_read(&ref);
 322:main.c        ****         printf("%d %d %d %d \r\n", ref.l3, ref.l1, ref.r1, ref.r3);       //print out each period o
 323:main.c        ****         reflectance_digital(&dig);      //print out 0 or 1 according to results of reflectance peri
 324:main.c        ****         printf("%d %d %d %d \r\n", dig.l3, dig.l1, dig.r1, dig.r3); 
 325:main.c        ****         
ARM GAS  C:\Users\austi\AppData\Local\Temp\ccM5l4IH.s 			page 11


 326:main.c        ****             if ( dig.l3 == 1 && dig.l1 == 0 && dig.r1 == 0 && dig.r3 == 1 )
 327:main.c        ****             {
 328:main.c        ****                 // Black line detected. Keep going
 329:main.c        ****                 motor_forward(255,1);
 330:main.c        ****                 true = 0;
 331:main.c        ****                 fake = 0;
 332:main.c        ****                 //CyDelayUs
 333:main.c        ****             }
 334:main.c        ****             else
 335:main.c        ****             if (dig.l3 == 1 && dig.l1 == 1 && dig.r1 == 0 && dig.r3 == 1)
 336:main.c        ****             {
 337:main.c        ****                 //  Turn Right Slowly.
 338:main.c        ****                 motor_turn(255,15,1);
 339:main.c        ****                 true = 0;
 340:main.c        ****                 fake = 0;
 341:main.c        ****             }
 342:main.c        ****             else
 343:main.c        ****              if (dig.l3 == 1 && dig.l1 == 1 && dig.r1 == 0 && dig.r3 == 0)
 344:main.c        ****             {
 345:main.c        ****                 //  Stop ( dead slow ) and turn right
 346:main.c        ****                 motor_turn(255,1,1);
 347:main.c        ****                 true = 0;
 348:main.c        ****                 fake = 0;
 349:main.c        ****             }
 350:main.c        ****             else
 351:main.c        ****             if (dig.l3 == 1 && dig.l1 == 1 && dig.r1 == 1 && dig.r3 == 0)
 352:main.c        ****             {
 353:main.c        ****                 //  Stop ( dead slow ) and turn right
 354:main.c        ****                 prmotor_turn(255,30,1);
 355:main.c        ****                 true = 0;
 356:main.c        ****                 fake = 0;
 357:main.c        ****             }
 358:main.c        ****             else
 359:main.c        ****             if ( dig.l3 == 1 && dig.l1 == 0 && dig.r1 == 1 && dig.r3 == 1 )
 360:main.c        ****             {
 361:main.c        ****                 // Turn Left slowly
 362:main.c        ****                 motor_turn(15,255,1);
 363:main.c        ****                 true = 0;
 364:main.c        ****                 fake = 0;
 365:main.c        ****             }
 366:main.c        ****             else
 367:main.c        ****             if (dig.l3 == 0 && dig.l1 == 1 && dig.r1 == 1 && dig.r3 == 1)
 368:main.c        ****             {
 369:main.c        ****                 // Stop ( dead slow ) and turn Left
 370:main.c        ****                 plmotor_turn(30,255,1);
 371:main.c        ****                 true = 0;
 372:main.c        ****                 fake = 0;
 373:main.c        ****             }
 374:main.c        ****             else
 375:main.c        ****              if (dig.l3 == 0 && dig.l1 == 0 && dig.r1 == 1 && dig.r3 == 1)
 376:main.c        ****             {
 377:main.c        ****                 // Stop ( dead slow ) and turn Left
 378:main.c        ****                 motor_turn(1,255,1);
 379:main.c        ****                 true = 0;
 380:main.c        ****                 fake = 0;
 381:main.c        ****             }           
 382:main.c        ****             if (dig.l3 == 0 && dig.l1 == 0 && dig.r1 == 0 && dig.r3 == 0)
ARM GAS  C:\Users\austi\AppData\Local\Temp\ccM5l4IH.s 			page 12


 383:main.c        ****             { 
 384:main.c        ****                 true = 1;
 385:main.c        ****                 if ( true != fake)
 386:main.c        ****                 { 
 387:main.c        ****                 i++;
 388:main.c        ****                 fake = true;
 389:main.c        ****                 }
 390:main.c        ****             }    
 391:main.c        ****                CyDelayUs(1);
 392:main.c        ****         } while (i < 3);   
 393:main.c        ****                 
 394:main.c        ****                     motor_stop();                
 395:main.c        ****                 
 396:main.c        ****                 // All white. Stop motor.
 397:main.c        ****                 //PWM_Stop();
 398:main.c        ****         for(;;);    
 399:main.c        ****                 
 400:main.c        ****             }
 401:main.c        ****       
 402:main.c        ****         
 403:main.c        ****         
 404:main.c        ****         
 405:main.c        ****         
 406:main.c        ****         
 407:main.c        ****         
 408:main.c        ****         //CyDelay(500);
 409:main.c        ****     
 410:main.c        ****     
 411:main.c        **** 
 412:main.c        ****         
 413:main.c        **** 
 414:main.c        **** 
 415:main.c        **** //*/
 416:main.c        **** 
 417:main.c        **** /*//3rd reflectance code/
 418:main.c        **** 
 419:main.c        ****  int main()
 420:main.c        **** {
 421:main.c        ****     float whitel = 4227, whiter = 5180, black_sv = 23999;
 422:main.c        ****     
 423:main.c        ****     float el, er, kp = 1600; 
 424:main.c        ****     int vel, ver;
 425:main.c        ****     CyGlobalIntEnable; 
 426:main.c        ****     UART_1_Start();
 427:main.c        ****     //motor_start();
 428:main.c        ****     //motor_forward(60,8000);
 429:main.c        ****     //motor_stop();
 430:main.c        ****     //delay(250);
 431:main.c        ****     //motor_start();
 432:main.c        ****     //motor_turn(100,0,1000);// turn
 433:main.c        ****     //motor_forward(60,2000);
 434:main.c        ****     
 435:main.c        ****     //motor_stop();
 436:main.c        ****     struct sensors_ ref;
 437:main.c        ****     struct sensors_ dig;
 438:main.c        ****     CyGlobalIntEnable; 
 439:main.c        ****     UART_1_Start();
ARM GAS  C:\Users\austi\AppData\Local\Temp\ccM5l4IH.s 			page 13


 440:main.c        ****     uint8 i = 0;
 441:main.c        ****     sensor_isr_StartEx(sensor_isr_handler);
 442:main.c        ****     PWM_Start();
 443:main.c        ****     reflectance_start();
 444:main.c        ****     //smotor_start();
 445:main.c        ****     IR_led_Write(1);
 446:main.c        ****     
 447:main.c        ****     for(;;)
 448:main.c        ****     {
 449:main.c        ****         
 450:main.c        ****         do{
 451:main.c        ****         reflectance_read(&ref);
 452:main.c        ****         //printf("%d %d %d %d \r\n", ref.l3, ref.l1, ref.r1, ref.r3);       //print out each period
 453:main.c        ****         //reflectance_digital(&dig);      //print out 0 or 1 according to results of reflectance pe
 454:main.c        ****         //printf("%d %d %d %d \r\n", dig.l3, dig.l1, dig.r1, dig.r3); 
 455:main.c        ****         el =  ( (float)black_sv - ref.l1 ) / ( black_sv - whitel );
 456:main.c        ****         er =  ( (float)black_sv - ref.r1 ) / ( black_sv - whiter );
 457:main.c        ****         vel = 255 - ( kp * el );
 458:main.c        ****         ver = 255 - ( kp * er );
 459:main.c        ****         motor_turn ( vel, ver, 10);
 460:main.c        ****         }
 461:main.c        ****         while (1);
 462:main.c        ****             
 463:main.c        ****         
 464:main.c        ****            
 465:main.c        ****         
 466:main.c        ****        
 467:main.c        ****                 
 468:main.c        ****         
 469:main.c        ****         
 470:main.c        ****         
 471:main.c        ****         
 472:main.c        ****         
 473:main.c        ****         
 474:main.c        ****         //CyDelay(500);
 475:main.c        ****     }
 476:main.c        ****     
 477:main.c        **** 
 478:main.c        ****         
 479:main.c        **** }
 480:main.c        **** 
 481:main.c        **** 
 482:main.c        **** //*/
 483:main.c        **** 
 484:main.c        ****   /*//motor//
 485:main.c        **** int main()
 486:main.c        **** {
 487:main.c        ****     CyGlobalIntEnable; 
 488:main.c        ****     UART_1_Start();
 489:main.c        **** 
 490:main.c        ****     motor_start();              // motor start
 491:main.c        ****     motor_forward (0,3000);
 492:main.c        ****     motor_forward(255,1900);     // moving forward
 493:main.c        ****     motor_turn(80,0,1000);      // turn
 494:main.c        ****     motor_forward(200,1750);
 495:main.c        ****     motor_turn(90,0,1000);    // turn
 496:main.c        ****     motor_turn(245,255,1800);  // moving backward
ARM GAS  C:\Users\austi\AppData\Local\Temp\ccM5l4IH.s 			page 14


 497:main.c        ****     motor_turn(140,0,1000);
 498:main.c        ****     motor_turn(195,255,1900); 
 499:main.c        ****        
 500:main.c        ****     motor_stop();               // motor stop
 501:main.c        ****     
 502:main.c        ****     for(;;)
 503:main.c        ****     {
 504:main.c        **** 
 505:main.c        ****     }
 506:main.c        **** }
 507:main.c        **** //*/
 508:main.c        ****     
 509:main.c        **** 
 510:main.c        **** /*//gyroscope//
 511:main.c        **** int main()
 512:main.c        **** {
 513:main.c        ****     CyGlobalIntEnable; 
 514:main.c        ****     UART_1_Start();
 515:main.c        ****   
 516:main.c        ****     I2C_Start();
 517:main.c        ****   
 518:main.c        ****     uint8 X_L_G, X_H_G, Y_L_G, Y_H_G, Z_L_G, Z_H_G;
 519:main.c        ****     int16 X_AXIS_G, Y_AXIS_G, Z_AXIS_G;
 520:main.c        ****     
 521:main.c        ****     I2C_write(GYRO_ADDR, GYRO_CTRL1_REG, 0x0F);             // set gyroscope into active mode
 522:main.c        ****     I2C_write(GYRO_ADDR, GYRO_CTRL4_REG, 0x30);             // set full scale selection to 2000dps 
 523:main.c        ****     
 524:main.c        ****     for(;;)
 525:main.c        ****     {
 526:main.c        ****         //print out gyroscope output
 527:main.c        ****         X_L_G = I2C_read(GYRO_ADDR, OUT_X_AXIS_L);
 528:main.c        ****         X_H_G = I2C_read(GYRO_ADDR, OUT_X_AXIS_H);
 529:main.c        ****         X_AXIS_G = convert_raw(X_H_G, X_L_G);
 530:main.c        ****         
 531:main.c        ****         
 532:main.c        ****         Y_L_G = I2C_read(GYRO_ADDR, OUT_Y_AXIS_L);
 533:main.c        ****         Y_H_G = I2C_read(GYRO_ADDR, OUT_Y_AXIS_H);
 534:main.c        ****         Y_AXIS_G = convert_raw(Y_H_G, Y_L_G);
 535:main.c        ****         
 536:main.c        ****         
 537:main.c        ****         Z_L_G = I2C_read(GYRO_ADDR, OUT_Z_AXIS_L);
 538:main.c        ****         Z_H_G = I2C_read(GYRO_ADDR, OUT_Z_AXIS_H);
 539:main.c        ****         Z_AXIS_G = convert_raw(Z_H_G, Z_L_G);
 540:main.c        ****      
 541:main.c        ****         // If you want to print value
 542:main.c        ****         printf("%d %d %d \r\n", X_AXIS_G, Y_AXIS_G, Z_AXIS_G);
 543:main.c        ****         CyDelay(50);
 544:main.c        ****     }
 545:main.c        **** }   
 546:main.c        **** //*/
 547:main.c        **** 
 548:main.c        **** 
 549:main.c        **** /*//magnetometer//
 550:main.c        **** int main()
 551:main.c        **** {
 552:main.c        ****     CyGlobalIntEnable; 
 553:main.c        ****     UART_1_Start();
ARM GAS  C:\Users\austi\AppData\Local\Temp\ccM5l4IH.s 			page 15


 554:main.c        ****   
 555:main.c        ****     I2C_Start();
 556:main.c        ****    
 557:main.c        ****     uint8 X_L_M, X_H_M, Y_L_M, Y_H_M, Z_L_M, Z_H_M;
 558:main.c        ****     int16 X_AXIS, Y_AXIS, Z_AXIS;
 559:main.c        ****     
 560:main.c        ****     I2C_write(GYRO_ADDR, GYRO_CTRL1_REG, 0x0F);             // set gyroscope into active mode
 561:main.c        ****     I2C_write(GYRO_ADDR, GYRO_CTRL4_REG, 0x30);             // set full scale selection to 2000dps
 562:main.c        ****     I2C_write(ACCEL_MAG_ADDR, ACCEL_CTRL1_REG, 0x37);           // set accelerometer & magnetometer
 563:main.c        ****     I2C_write(ACCEL_MAG_ADDR, ACCEL_CTRL7_REG, 0x22);
 564:main.c        ****     
 565:main.c        ****     
 566:main.c        ****     for(;;)
 567:main.c        ****     {
 568:main.c        ****         X_L_M = I2C_read(ACCEL_MAG_ADDR, OUT_X_L_M);
 569:main.c        ****         X_H_M = I2C_read(ACCEL_MAG_ADDR, OUT_X_H_M);
 570:main.c        ****         X_AXIS = convert_raw(X_L_M, X_H_M);
 571:main.c        ****         
 572:main.c        ****         Y_L_M = I2C_read(ACCEL_MAG_ADDR, OUT_Y_L_M);
 573:main.c        ****         Y_H_M = I2C_read(ACCEL_MAG_ADDR, OUT_Y_H_M);
 574:main.c        ****         Y_AXIS = convert_raw(Y_L_M, Y_H_M);
 575:main.c        ****         
 576:main.c        ****         Z_L_M = I2C_read(ACCEL_MAG_ADDR, OUT_Z_L_M);
 577:main.c        ****         Z_H_M = I2C_read(ACCEL_MAG_ADDR, OUT_Z_H_M);
 578:main.c        ****         Z_AXIS = convert_raw(Z_L_M, Z_H_M);
 579:main.c        ****         
 580:main.c        ****         heading(X_AXIS, Y_AXIS);
 581:main.c        ****         printf("MAGNET: %d %d %d %d %d %d \r\n", X_L_M, X_H_M, Y_L_M, Y_H_M, Z_L_M, Z_H_M);
 582:main.c        ****         printf("%d %d %d \r\n", X_AXIS,Y_AXIS, Z_AXIS);
 583:main.c        ****         CyDelay(50);      
 584:main.c        ****     }
 585:main.c        **** }   
 586:main.c        **** //*/
 587:main.c        **** 
 588:main.c        **** 
 589:main.c        **** #if 0
 590:main.c        **** int rread(void)
 591:main.c        **** {
 592:main.c        ****     SC0_SetDriveMode(PIN_DM_STRONG);
 593:main.c        ****     SC0_Write(1);
 594:main.c        ****     CyDelayUs(10);
 595:main.c        ****     SC0_SetDriveMode(PIN_DM_DIG_HIZ);
 596:main.c        ****     Timer_1_Start();
 597:main.c        ****     uint16_t start = Timer_1_ReadCounter();
 598:main.c        ****     uint16_t end = 0;
 599:main.c        ****     while(!(Timer_1_ReadStatusRegister() & Timer_1_STATUS_TC)) {
 600:main.c        ****         if(SC0_Read() == 0 && end == 0) {
 601:main.c        ****             end = Timer_1_ReadCounter();
 602:main.c        ****         }
 603:main.c        ****     }
 604:main.c        ****     Timer_1_Stop();
 605:main.c        ****     
 606:main.c        ****     return (start - end);
 607:main.c        **** }
 608:main.c        **** #endif
 609:main.c        **** 
 610:main.c        **** /* Don't remove the functions below */
ARM GAS  C:\Users\austi\AppData\Local\Temp\ccM5l4IH.s 			page 16


 611:main.c        **** int _write(int file, char *ptr, int len)
 612:main.c        **** {
 244              		.loc 1 612 0
 245              		.cfi_startproc
 246              		@ args = 0, pretend = 0, frame = 0
 247              		@ frame_needed = 0, uses_anonymous_args = 0
 248              	.LVL28:
 249 0000 F8B5     		push	{r3, r4, r5, r6, r7, lr}
 250              		.cfi_def_cfa_offset 24
 251              		.cfi_offset 3, -24
 252              		.cfi_offset 4, -20
 253              		.cfi_offset 5, -16
 254              		.cfi_offset 6, -12
 255              		.cfi_offset 7, -8
 256              		.cfi_offset 14, -4
 257 0002 0C46     		mov	r4, r1
 258 0004 1746     		mov	r7, r2
 259              	.LVL29:
 613:main.c        ****     (void)file; /* Parameter is not used, suppress unused argument warning */
 614:main.c        **** 	int n;
 615:main.c        **** 	for(n = 0; n < len; n++) {
 260              		.loc 1 615 0
 261 0006 0025     		movs	r5, #0
 262 0008 0BE0     		b	.L15
 263              	.LVL30:
 264              	.L17:
 616:main.c        ****         if(*ptr == '\n') UART_1_PutChar('\r');
 265              		.loc 1 616 0
 266 000a 2378     		ldrb	r3, [r4]	@ zero_extendqisi2
 267 000c 0A2B     		cmp	r3, #10
 268 000e 02D1     		bne	.L16
 269              		.loc 1 616 0 is_stmt 0 discriminator 1
 270 0010 0D20     		movs	r0, #13
 271 0012 FFF7FEFF 		bl	UART_1_PutChar
 272              	.LVL31:
 273              	.L16:
 617:main.c        **** 		UART_1_PutChar(*ptr++);
 274              		.loc 1 617 0 is_stmt 1 discriminator 2
 275 0016 661C     		adds	r6, r4, #1
 276              	.LVL32:
 277 0018 2078     		ldrb	r0, [r4]	@ zero_extendqisi2
 278 001a FFF7FEFF 		bl	UART_1_PutChar
 279              	.LVL33:
 615:main.c        ****         if(*ptr == '\n') UART_1_PutChar('\r');
 280              		.loc 1 615 0 discriminator 2
 281 001e 0135     		adds	r5, r5, #1
 282              	.LVL34:
 283              		.loc 1 617 0 discriminator 2
 284 0020 3446     		mov	r4, r6
 285              	.LVL35:
 286              	.L15:
 615:main.c        ****         if(*ptr == '\n') UART_1_PutChar('\r');
 287              		.loc 1 615 0 discriminator 1
 288 0022 BD42     		cmp	r5, r7
 289 0024 F1DB     		blt	.L17
 618:main.c        **** 	}
 619:main.c        **** 	return len;
ARM GAS  C:\Users\austi\AppData\Local\Temp\ccM5l4IH.s 			page 17


 620:main.c        **** }
 290              		.loc 1 620 0
 291 0026 3846     		mov	r0, r7
 292 0028 F8BD     		pop	{r3, r4, r5, r6, r7, pc}
 293              		.cfi_endproc
 294              	.LFE64:
 295              		.size	_write, .-_write
 296 002a 00BF     		.section	.text._read,"ax",%progbits
 297              		.align	2
 298              		.global	_read
 299              		.thumb
 300              		.thumb_func
 301              		.type	_read, %function
 302              	_read:
 303              	.LFB65:
 621:main.c        **** 
 622:main.c        **** int _read (int file, char *ptr, int count)
 623:main.c        **** {
 304              		.loc 1 623 0
 305              		.cfi_startproc
 306              		@ args = 0, pretend = 0, frame = 0
 307              		@ frame_needed = 0, uses_anonymous_args = 0
 308              	.LVL36:
 309 0000 F8B5     		push	{r3, r4, r5, r6, r7, lr}
 310              		.cfi_def_cfa_offset 24
 311              		.cfi_offset 3, -24
 312              		.cfi_offset 4, -20
 313              		.cfi_offset 5, -16
 314              		.cfi_offset 6, -12
 315              		.cfi_offset 7, -8
 316              		.cfi_offset 14, -4
 317 0002 0F46     		mov	r7, r1
 318 0004 1446     		mov	r4, r2
 319              	.LVL37:
 624:main.c        ****     int chs = 0;
 320              		.loc 1 624 0
 321 0006 0026     		movs	r6, #0
 625:main.c        ****     char ch;
 626:main.c        ****  
 627:main.c        ****     (void)file; /* Parameter is not used, suppress unused argument warning */
 628:main.c        ****     while(count > 0) {
 322              		.loc 1 628 0
 323 0008 12E0     		b	.L21
 324              	.LVL38:
 325              	.L24:
 629:main.c        ****         ch = UART_1_GetChar();
 326              		.loc 1 629 0
 327 000a FFF7FEFF 		bl	UART_1_GetChar
 328              	.LVL39:
 630:main.c        ****         if(ch != 0) {
 329              		.loc 1 630 0
 330 000e 0546     		mov	r5, r0
 331 0010 70B1     		cbz	r0, .L21
 631:main.c        ****             UART_1_PutChar(ch);
 332              		.loc 1 631 0
 333 0012 FFF7FEFF 		bl	UART_1_PutChar
 334              	.LVL40:
ARM GAS  C:\Users\austi\AppData\Local\Temp\ccM5l4IH.s 			page 18


 632:main.c        ****             chs++;
 335              		.loc 1 632 0
 336 0016 0136     		adds	r6, r6, #1
 337              	.LVL41:
 633:main.c        ****             if(ch == '\r') {
 338              		.loc 1 633 0
 339 0018 0D2D     		cmp	r5, #13
 340 001a 03D1     		bne	.L22
 341              	.LVL42:
 634:main.c        ****                 ch = '\n';
 635:main.c        ****                 UART_1_PutChar(ch);
 342              		.loc 1 635 0
 343 001c 0A20     		movs	r0, #10
 344 001e FFF7FEFF 		bl	UART_1_PutChar
 345              	.LVL43:
 634:main.c        ****                 ch = '\n';
 346              		.loc 1 634 0
 347 0022 0A25     		movs	r5, #10
 348              	.LVL44:
 349              	.L22:
 636:main.c        ****             }
 637:main.c        ****             *ptr++ = ch;
 350              		.loc 1 637 0
 351 0024 7B1C     		adds	r3, r7, #1
 352              	.LVL45:
 353 0026 3D70     		strb	r5, [r7]
 638:main.c        ****             count--;
 354              		.loc 1 638 0
 355 0028 013C     		subs	r4, r4, #1
 356              	.LVL46:
 639:main.c        ****             if(ch == '\n') break;
 357              		.loc 1 639 0
 358 002a 0A2D     		cmp	r5, #10
 359 002c 02D0     		beq	.L23
 637:main.c        ****             count--;
 360              		.loc 1 637 0
 361 002e 1F46     		mov	r7, r3
 362              	.LVL47:
 363              	.L21:
 628:main.c        ****         ch = UART_1_GetChar();
 364              		.loc 1 628 0
 365 0030 002C     		cmp	r4, #0
 366 0032 EADC     		bgt	.L24
 367              	.LVL48:
 368              	.L23:
 640:main.c        ****         }
 641:main.c        ****     }
 642:main.c        ****     return chs;
 643:main.c        **** }
 369              		.loc 1 643 0
 370 0034 3046     		mov	r0, r6
 371 0036 F8BD     		pop	{r3, r4, r5, r6, r7, pc}
 372              		.cfi_endproc
 373              	.LFE65:
 374              		.size	_read, .-_read
 375              		.section	.rodata.str1.4,"aMS",%progbits,1
 376              		.align	2
ARM GAS  C:\Users\austi\AppData\Local\Temp\ccM5l4IH.s 			page 19


 377              	.LC0:
 378 0000 25642025 		.ascii	"%d %d  \015\012\000"
 378      6420200D 
 378      0A00
 379 000a 0000     		.space	2
 380              	.LC1:
 381 000c 44657465 		.ascii	"Detecting Line \000"
 381      6374696E 
 381      67204C69 
 381      6E652000 
 382              	.LC2:
 383 001c 4C696E65 		.ascii	"Line Detected \000"
 383      20446574 
 383      65637465 
 383      642000
 384 002b 00       		.space	1
 385              	.LC3:
 386 002c 466F7220 		.ascii	"For Loop Started \000"
 386      4C6F6F70 
 386      20537461 
 386      72746564 
 386      2000
 387 003e 0000     		.space	2
 388              	.LC4:
 389 0040 25642025 		.ascii	"%d %d %d %d \015\012\000"
 389      64202564 
 389      20256420 
 389      0D0A00
 390 004f 00       		.text
 391              	.Letext0:
 392              		.file 2 "c:\\program files (x86)\\cypress\\psoc creator\\4.0\\psoc creator\\import\\gnu\\arm\\4.9.
 393              		.file 3 "c:\\program files (x86)\\cypress\\psoc creator\\4.0\\psoc creator\\import\\gnu\\arm\\4.9.
 394              		.file 4 "Generated_Source\\PSoC5/cytypes.h"
 395              		.file 5 ".\\ZumoLibrary/Reflectance.h"
 396              		.file 6 "Generated_Source\\PSoC5/UART_1.h"
 397              		.file 7 "Generated_Source\\PSoC5/sensor_isr.h"
 398              		.file 8 "Generated_Source\\PSoC5/IR_led.h"
 399              		.file 9 ".\\ZumoLibrary/Motor.h"
 400              		.file 10 "Generated_Source\\PSoC5/PWM.h"
 401              		.file 11 ".\\ZumoLibrary/IR.h"
 402              		.file 12 "Generated_Source\\PSoC5/CyLib.h"
 403              		.file 13 "Generated_Source\\PSoC5/core_cm3.h"
 404              		.file 14 "c:\\program files (x86)\\cypress\\psoc creator\\4.0\\psoc creator\\import\\gnu\\arm\\4.9
 405              		.file 15 "<built-in>"