ARM GAS  C:\Users\austi\AppData\Local\Temp\ccvAQqjf.s 			page 1


   1              		.syntax unified
   2              		.cpu cortex-m3
   3              		.fpu softvfp
   4              		.eabi_attribute 20, 1
   5              		.eabi_attribute 21, 1
   6              		.eabi_attribute 23, 3
   7              		.eabi_attribute 24, 1
   8              		.eabi_attribute 25, 1
   9              		.eabi_attribute 26, 1
  10              		.eabi_attribute 30, 1
  11              		.eabi_attribute 34, 1
  12              		.eabi_attribute 18, 4
  13              		.thumb
  14              		.file	"Motor.c"
  15              		.text
  16              	.Ltext0:
  17              		.cfi_sections	.debug_frame
  18              		.section	.text.motor_start,"ax",%progbits
  19              		.align	2
  20              		.global	motor_start
  21              		.thumb
  22              		.thumb_func
  23              		.type	motor_start, %function
  24              	motor_start:
  25              	.LFB63:
  26              		.file 1 "ZumoLibrary\\Motor.c"
   1:ZumoLibrary/Motor.c **** /**
   2:ZumoLibrary/Motor.c ****  * @file    Motor.c
   3:ZumoLibrary/Motor.c ****  * @brief   Basic methods for operating motor sensor. For more details, please refer to Motor.h fil
   4:ZumoLibrary/Motor.c ****  * @details included in Zumo shield
   5:ZumoLibrary/Motor.c **** */
   6:ZumoLibrary/Motor.c **** #include "Motor.h"
   7:ZumoLibrary/Motor.c **** 
   8:ZumoLibrary/Motor.c **** 
   9:ZumoLibrary/Motor.c **** /**
  10:ZumoLibrary/Motor.c **** * @brief    Starting motor sensors
  11:ZumoLibrary/Motor.c **** * @details  
  12:ZumoLibrary/Motor.c **** */
  13:ZumoLibrary/Motor.c **** void motor_start()
  14:ZumoLibrary/Motor.c **** {
  27              		.loc 1 14 0
  28              		.cfi_startproc
  29              		@ args = 0, pretend = 0, frame = 0
  30              		@ frame_needed = 0, uses_anonymous_args = 0
  31 0000 08B5     		push	{r3, lr}
  32              		.cfi_def_cfa_offset 8
  33              		.cfi_offset 3, -8
  34              		.cfi_offset 14, -4
  15:ZumoLibrary/Motor.c ****     PWM_Start();
  35              		.loc 1 15 0
  36 0002 FFF7FEFF 		bl	PWM_Start
  37              	.LVL0:
  38 0006 08BD     		pop	{r3, pc}
  39              		.cfi_endproc
  40              	.LFE63:
  41              		.size	motor_start, .-motor_start
  42              		.section	.text.motor_stop,"ax",%progbits
ARM GAS  C:\Users\austi\AppData\Local\Temp\ccvAQqjf.s 			page 2


  43              		.align	2
  44              		.global	motor_stop
  45              		.thumb
  46              		.thumb_func
  47              		.type	motor_stop, %function
  48              	motor_stop:
  49              	.LFB64:
  16:ZumoLibrary/Motor.c **** }
  17:ZumoLibrary/Motor.c **** 
  18:ZumoLibrary/Motor.c **** 
  19:ZumoLibrary/Motor.c **** /**
  20:ZumoLibrary/Motor.c **** * @brief    Stopping motor sensors
  21:ZumoLibrary/Motor.c **** * @details
  22:ZumoLibrary/Motor.c **** */
  23:ZumoLibrary/Motor.c **** void motor_stop()
  24:ZumoLibrary/Motor.c **** {
  50              		.loc 1 24 0
  51              		.cfi_startproc
  52              		@ args = 0, pretend = 0, frame = 0
  53              		@ frame_needed = 0, uses_anonymous_args = 0
  54 0000 08B5     		push	{r3, lr}
  55              		.cfi_def_cfa_offset 8
  56              		.cfi_offset 3, -8
  57              		.cfi_offset 14, -4
  25:ZumoLibrary/Motor.c ****     PWM_Stop();
  58              		.loc 1 25 0
  59 0002 FFF7FEFF 		bl	PWM_Stop
  60              	.LVL1:
  61 0006 08BD     		pop	{r3, pc}
  62              		.cfi_endproc
  63              	.LFE64:
  64              		.size	motor_stop, .-motor_stop
  65              		.section	.text.motor_forward,"ax",%progbits
  66              		.align	2
  67              		.global	motor_forward
  68              		.thumb
  69              		.thumb_func
  70              		.type	motor_forward, %function
  71              	motor_forward:
  72              	.LFB65:
  26:ZumoLibrary/Motor.c **** }
  27:ZumoLibrary/Motor.c **** 
  28:ZumoLibrary/Motor.c **** 
  29:ZumoLibrary/Motor.c **** /**
  30:ZumoLibrary/Motor.c **** * @brief    Moving motors forward
  31:ZumoLibrary/Motor.c **** * @details  giveing same speed to each side of PWM to make motors go forward
  32:ZumoLibrary/Motor.c **** * @param    uint8 speed : speed value
  33:ZumoLibrary/Motor.c **** * @param    uint32 delay : delay time
  34:ZumoLibrary/Motor.c **** */
  35:ZumoLibrary/Motor.c **** void motor_forward(uint8 speed,uint32 delay)
  36:ZumoLibrary/Motor.c **** {
  73              		.loc 1 36 0
  74              		.cfi_startproc
  75              		@ args = 0, pretend = 0, frame = 0
  76              		@ frame_needed = 0, uses_anonymous_args = 0
  77              	.LVL2:
  78 0000 38B5     		push	{r3, r4, r5, lr}
ARM GAS  C:\Users\austi\AppData\Local\Temp\ccvAQqjf.s 			page 3


  79              		.cfi_def_cfa_offset 16
  80              		.cfi_offset 3, -16
  81              		.cfi_offset 4, -12
  82              		.cfi_offset 5, -8
  83              		.cfi_offset 14, -4
  84 0002 0446     		mov	r4, r0
  85 0004 0D46     		mov	r5, r1
  37:ZumoLibrary/Motor.c ****     MotorDirLeft_Write(0);      // set LeftMotor forward mode
  86              		.loc 1 37 0
  87 0006 0020     		movs	r0, #0
  88              	.LVL3:
  89 0008 FFF7FEFF 		bl	MotorDirLeft_Write
  90              	.LVL4:
  38:ZumoLibrary/Motor.c ****     MotorDirRight_Write(0);     // set RightMotor forward mode
  91              		.loc 1 38 0
  92 000c 0020     		movs	r0, #0
  93 000e FFF7FEFF 		bl	MotorDirRight_Write
  94              	.LVL5:
  39:ZumoLibrary/Motor.c ****     PWM_WriteCompare1(speed); 
  95              		.loc 1 39 0
  96 0012 2046     		mov	r0, r4
  97 0014 FFF7FEFF 		bl	PWM_WriteCompare1
  98              	.LVL6:
  40:ZumoLibrary/Motor.c ****     PWM_WriteCompare2(speed); 
  99              		.loc 1 40 0
 100 0018 2046     		mov	r0, r4
 101 001a FFF7FEFF 		bl	PWM_WriteCompare2
 102              	.LVL7:
  41:ZumoLibrary/Motor.c ****     CyDelay(delay);
 103              		.loc 1 41 0
 104 001e 2846     		mov	r0, r5
 105 0020 FFF7FEFF 		bl	CyDelay
 106              	.LVL8:
 107 0024 38BD     		pop	{r3, r4, r5, pc}
 108              		.cfi_endproc
 109              	.LFE65:
 110              		.size	motor_forward, .-motor_forward
 111 0026 00BF     		.section	.text.prmotor_turn,"ax",%progbits
 112              		.align	2
 113              		.global	prmotor_turn
 114              		.thumb
 115              		.thumb_func
 116              		.type	prmotor_turn, %function
 117              	prmotor_turn:
 118              	.LFB66:
  42:ZumoLibrary/Motor.c **** }
  43:ZumoLibrary/Motor.c **** void prmotor_turn(uint8 l_speed, uint8 r_speed, uint32 delay)
  44:ZumoLibrary/Motor.c **** {
 119              		.loc 1 44 0
 120              		.cfi_startproc
 121              		@ args = 0, pretend = 0, frame = 0
 122              		@ frame_needed = 0, uses_anonymous_args = 0
 123              	.LVL9:
 124 0000 70B5     		push	{r4, r5, r6, lr}
 125              		.cfi_def_cfa_offset 16
 126              		.cfi_offset 4, -16
 127              		.cfi_offset 5, -12
ARM GAS  C:\Users\austi\AppData\Local\Temp\ccvAQqjf.s 			page 4


 128              		.cfi_offset 6, -8
 129              		.cfi_offset 14, -4
 130 0002 0646     		mov	r6, r0
 131 0004 0D46     		mov	r5, r1
 132 0006 1446     		mov	r4, r2
  45:ZumoLibrary/Motor.c ****     MotorDirLeft_Write(0);
 133              		.loc 1 45 0
 134 0008 0020     		movs	r0, #0
 135              	.LVL10:
 136 000a FFF7FEFF 		bl	MotorDirLeft_Write
 137              	.LVL11:
  46:ZumoLibrary/Motor.c ****     MotorDirRight_Write(1);
 138              		.loc 1 46 0
 139 000e 0120     		movs	r0, #1
 140 0010 FFF7FEFF 		bl	MotorDirRight_Write
 141              	.LVL12:
  47:ZumoLibrary/Motor.c ****     PWM_WriteCompare1(l_speed); 
 142              		.loc 1 47 0
 143 0014 3046     		mov	r0, r6
 144 0016 FFF7FEFF 		bl	PWM_WriteCompare1
 145              	.LVL13:
  48:ZumoLibrary/Motor.c ****     PWM_WriteCompare2(r_speed); 
 146              		.loc 1 48 0
 147 001a 2846     		mov	r0, r5
 148 001c FFF7FEFF 		bl	PWM_WriteCompare2
 149              	.LVL14:
  49:ZumoLibrary/Motor.c ****     CyDelay(delay);
 150              		.loc 1 49 0
 151 0020 2046     		mov	r0, r4
 152 0022 FFF7FEFF 		bl	CyDelay
 153              	.LVL15:
 154 0026 70BD     		pop	{r4, r5, r6, pc}
 155              		.cfi_endproc
 156              	.LFE66:
 157              		.size	prmotor_turn, .-prmotor_turn
 158              		.section	.text.plmotor_turn,"ax",%progbits
 159              		.align	2
 160              		.global	plmotor_turn
 161              		.thumb
 162              		.thumb_func
 163              		.type	plmotor_turn, %function
 164              	plmotor_turn:
 165              	.LFB67:
  50:ZumoLibrary/Motor.c **** }
  51:ZumoLibrary/Motor.c **** void plmotor_turn(uint8 l_speed, uint8 r_speed, uint32 delay)
  52:ZumoLibrary/Motor.c **** {
 166              		.loc 1 52 0
 167              		.cfi_startproc
 168              		@ args = 0, pretend = 0, frame = 0
 169              		@ frame_needed = 0, uses_anonymous_args = 0
 170              	.LVL16:
 171 0000 70B5     		push	{r4, r5, r6, lr}
 172              		.cfi_def_cfa_offset 16
 173              		.cfi_offset 4, -16
 174              		.cfi_offset 5, -12
 175              		.cfi_offset 6, -8
 176              		.cfi_offset 14, -4
ARM GAS  C:\Users\austi\AppData\Local\Temp\ccvAQqjf.s 			page 5


 177 0002 0646     		mov	r6, r0
 178 0004 0D46     		mov	r5, r1
 179 0006 1446     		mov	r4, r2
  53:ZumoLibrary/Motor.c ****     MotorDirLeft_Write(1);
 180              		.loc 1 53 0
 181 0008 0120     		movs	r0, #1
 182              	.LVL17:
 183 000a FFF7FEFF 		bl	MotorDirLeft_Write
 184              	.LVL18:
  54:ZumoLibrary/Motor.c ****     MotorDirRight_Write(0);
 185              		.loc 1 54 0
 186 000e 0020     		movs	r0, #0
 187 0010 FFF7FEFF 		bl	MotorDirRight_Write
 188              	.LVL19:
  55:ZumoLibrary/Motor.c ****     PWM_WriteCompare1(l_speed); 
 189              		.loc 1 55 0
 190 0014 3046     		mov	r0, r6
 191 0016 FFF7FEFF 		bl	PWM_WriteCompare1
 192              	.LVL20:
  56:ZumoLibrary/Motor.c ****     PWM_WriteCompare2(r_speed); 
 193              		.loc 1 56 0
 194 001a 2846     		mov	r0, r5
 195 001c FFF7FEFF 		bl	PWM_WriteCompare2
 196              	.LVL21:
  57:ZumoLibrary/Motor.c ****     CyDelay(delay);
 197              		.loc 1 57 0
 198 0020 2046     		mov	r0, r4
 199 0022 FFF7FEFF 		bl	CyDelay
 200              	.LVL22:
 201 0026 70BD     		pop	{r4, r5, r6, pc}
 202              		.cfi_endproc
 203              	.LFE67:
 204              		.size	plmotor_turn, .-plmotor_turn
 205              		.section	.text.motor_turn,"ax",%progbits
 206              		.align	2
 207              		.global	motor_turn
 208              		.thumb
 209              		.thumb_func
 210              		.type	motor_turn, %function
 211              	motor_turn:
 212              	.LFB68:
  58:ZumoLibrary/Motor.c **** }
  59:ZumoLibrary/Motor.c **** 
  60:ZumoLibrary/Motor.c **** /**
  61:ZumoLibrary/Motor.c **** * @brief    Moving motors to make a turn 
  62:ZumoLibrary/Motor.c **** * @details  moving left when l_speed < r_speed or moving right when l_speed > r_speed
  63:ZumoLibrary/Motor.c **** * @param    uint8 l_speed : left motor speed value
  64:ZumoLibrary/Motor.c **** * @param    uint8 r_speed : right motor speed value
  65:ZumoLibrary/Motor.c **** * @param    uint32 delay : delay time
  66:ZumoLibrary/Motor.c **** */
  67:ZumoLibrary/Motor.c **** void motor_turn(uint8 l_speed, uint8 r_speed, uint32 delay)
  68:ZumoLibrary/Motor.c **** {
 213              		.loc 1 68 0
 214              		.cfi_startproc
 215              		@ args = 0, pretend = 0, frame = 0
 216              		@ frame_needed = 0, uses_anonymous_args = 0
 217              	.LVL23:
ARM GAS  C:\Users\austi\AppData\Local\Temp\ccvAQqjf.s 			page 6


 218 0000 38B5     		push	{r3, r4, r5, lr}
 219              		.cfi_def_cfa_offset 16
 220              		.cfi_offset 3, -16
 221              		.cfi_offset 4, -12
 222              		.cfi_offset 5, -8
 223              		.cfi_offset 14, -4
 224 0002 0D46     		mov	r5, r1
 225 0004 1446     		mov	r4, r2
  69:ZumoLibrary/Motor.c ****     PWM_WriteCompare1(l_speed); 
 226              		.loc 1 69 0
 227 0006 FFF7FEFF 		bl	PWM_WriteCompare1
 228              	.LVL24:
  70:ZumoLibrary/Motor.c ****     PWM_WriteCompare2(r_speed); 
 229              		.loc 1 70 0
 230 000a 2846     		mov	r0, r5
 231 000c FFF7FEFF 		bl	PWM_WriteCompare2
 232              	.LVL25:
  71:ZumoLibrary/Motor.c ****     CyDelay(delay);
 233              		.loc 1 71 0
 234 0010 2046     		mov	r0, r4
 235 0012 FFF7FEFF 		bl	CyDelay
 236              	.LVL26:
 237 0016 38BD     		pop	{r3, r4, r5, pc}
 238              		.cfi_endproc
 239              	.LFE68:
 240              		.size	motor_turn, .-motor_turn
 241              		.section	.text.motor_backward,"ax",%progbits
 242              		.align	2
 243              		.global	motor_backward
 244              		.thumb
 245              		.thumb_func
 246              		.type	motor_backward, %function
 247              	motor_backward:
 248              	.LFB69:
  72:ZumoLibrary/Motor.c **** }
  73:ZumoLibrary/Motor.c **** 
  74:ZumoLibrary/Motor.c **** 
  75:ZumoLibrary/Motor.c **** /**
  76:ZumoLibrary/Motor.c **** * @brief    Moving motors backward
  77:ZumoLibrary/Motor.c **** * @details  setting backward mode to each motors and gives same speed to each side of PWM
  78:ZumoLibrary/Motor.c **** * @param    uint8 speed : speed value
  79:ZumoLibrary/Motor.c **** * @param    uint32 delay : delay time
  80:ZumoLibrary/Motor.c **** */
  81:ZumoLibrary/Motor.c **** void motor_backward(uint8 speed,uint32 delay)
  82:ZumoLibrary/Motor.c **** {
 249              		.loc 1 82 0
 250              		.cfi_startproc
 251              		@ args = 0, pretend = 0, frame = 0
 252              		@ frame_needed = 0, uses_anonymous_args = 0
 253              	.LVL27:
 254 0000 38B5     		push	{r3, r4, r5, lr}
 255              		.cfi_def_cfa_offset 16
 256              		.cfi_offset 3, -16
 257              		.cfi_offset 4, -12
 258              		.cfi_offset 5, -8
 259              		.cfi_offset 14, -4
 260 0002 0446     		mov	r4, r0
ARM GAS  C:\Users\austi\AppData\Local\Temp\ccvAQqjf.s 			page 7


 261 0004 0D46     		mov	r5, r1
  83:ZumoLibrary/Motor.c ****     MotorDirLeft_Write(1);      // set LeftMotor backward mode
 262              		.loc 1 83 0
 263 0006 0120     		movs	r0, #1
 264              	.LVL28:
 265 0008 FFF7FEFF 		bl	MotorDirLeft_Write
 266              	.LVL29:
  84:ZumoLibrary/Motor.c ****     MotorDirRight_Write(1);     // set RightMotor backward mode
 267              		.loc 1 84 0
 268 000c 0120     		movs	r0, #1
 269 000e FFF7FEFF 		bl	MotorDirRight_Write
 270              	.LVL30:
  85:ZumoLibrary/Motor.c ****     PWM_WriteCompare1(speed); 
 271              		.loc 1 85 0
 272 0012 2046     		mov	r0, r4
 273 0014 FFF7FEFF 		bl	PWM_WriteCompare1
 274              	.LVL31:
  86:ZumoLibrary/Motor.c ****     PWM_WriteCompare2(speed); 
 275              		.loc 1 86 0
 276 0018 2046     		mov	r0, r4
 277 001a FFF7FEFF 		bl	PWM_WriteCompare2
 278              	.LVL32:
  87:ZumoLibrary/Motor.c ****     CyDelay(delay);
 279              		.loc 1 87 0
 280 001e 2846     		mov	r0, r5
 281 0020 FFF7FEFF 		bl	CyDelay
 282              	.LVL33:
 283 0024 38BD     		pop	{r3, r4, r5, pc}
 284              		.cfi_endproc
 285              	.LFE69:
 286              		.size	motor_backward, .-motor_backward
 287 0026 00BF     		.text
 288              	.Letext0:
 289              		.file 2 "c:\\program files (x86)\\cypress\\psoc creator\\4.0\\psoc creator\\import\\gnu\\arm\\4.9.
 290              		.file 3 "c:\\program files (x86)\\cypress\\psoc creator\\4.0\\psoc creator\\import\\gnu\\arm\\4.9.
 291              		.file 4 "Generated_Source\\PSoC5/cytypes.h"
 292              		.file 5 "Generated_Source\\PSoC5/PWM.h"
 293              		.file 6 "Generated_Source\\PSoC5/MotorDirLeft.h"
 294              		.file 7 "Generated_Source\\PSoC5/MotorDirRight.h"
 295              		.file 8 "Generated_Source\\PSoC5/core_cm3.h"
 296              		.file 9 "Generated_Source\\PSoC5/CyLib.h"